target datalayout = "e-m:e-p270:32:32-p271:32:32-p272:64:64-i64:64-i128:128-f80:128-n8:16:32:64-S128"
target triple = "x86_64-unknown-linux-gnu"

%struct.file_operations = type { ptr, ptr, ptr, ptr, ptr, ptr, ptr, ptr, ptr, ptr, ptr, ptr, i64, ptr, ptr, ptr, ptr, ptr, ptr, ptr, ptr, ptr, ptr, ptr, ptr, ptr, ptr, ptr, ptr, ptr, ptr, ptr, ptr }
%struct.inode_operations = type { ptr, ptr, ptr, ptr, ptr, ptr, ptr, ptr, ptr, ptr, ptr, ptr, ptr, ptr, ptr, ptr, ptr, ptr, ptr, ptr, ptr, ptr, ptr, ptr, ptr, [56 x i8] }
%struct.pcpu_hot = type { %union.anon.16 }
%union.anon.16 = type { %struct.anon.17, [16 x i8] }
%struct.anon.17 = type { ptr, i32, i32, i64, i64, ptr, i16, i8 }

@ramfs_file_operations = dso_local local_unnamed_addr constant %struct.file_operations { ptr null, ptr @generic_file_llseek, ptr null, ptr null, ptr @generic_file_read_iter, ptr @generic_file_write_iter, ptr null, ptr null, ptr null, ptr null, ptr null, ptr @generic_file_mmap, i64 0, ptr null, ptr null, ptr null, ptr @noop_fsync, ptr null, ptr null, ptr @ramfs_mmu_get_unmapped_area, ptr null, ptr null, ptr @iter_file_splice_write, ptr @filemap_splice_read, ptr null, ptr null, ptr null, ptr null, ptr null, ptr null, ptr null, ptr null, ptr null }, align 8
@ramfs_file_inode_operations = dso_local local_unnamed_addr constant %struct.inode_operations { ptr null, ptr null, ptr null, ptr null, ptr null, ptr null, ptr null, ptr null, ptr null, ptr null, ptr null, ptr null, ptr null, ptr @simple_setattr, ptr @simple_getattr, ptr null, ptr null, ptr null, ptr null, ptr null, ptr null, ptr null, ptr null, ptr null, ptr null, [56 x i8] undef }, align 64
@pcpu_hot = external dso_local global %struct.pcpu_hot, section ".data..percpu..shared_aligned", align 64

; Function Attrs: null_pointer_is_valid
declare dso_local i64 @generic_file_llseek(ptr noundef, i64 noundef, i32 noundef) #0

; Function Attrs: null_pointer_is_valid
declare dso_local i64 @generic_file_read_iter(ptr noundef, ptr noundef) #0

; Function Attrs: null_pointer_is_valid
declare dso_local i64 @generic_file_write_iter(ptr noundef, ptr noundef) #0

; Function Attrs: null_pointer_is_valid
declare dso_local i32 @generic_file_mmap(ptr noundef, ptr noundef) #0

; Function Attrs: null_pointer_is_valid
declare dso_local i32 @noop_fsync(ptr noundef, i64 noundef, i64 noundef, i32 noundef) #0

; Function Attrs: fn_ret_thunk_extern nounwind null_pointer_is_valid
define internal i64 @ramfs_mmu_get_unmapped_area(ptr noundef %0, i64 noundef %1, i64 noundef %2, i64 noundef %3, i64 noundef %4) #1 align 16 {
  %6 = tail call i64 asm "movq %gs:${1:P}, $0", "=r,p,~{dirflag},~{fpsr},~{flags}"(ptr nonnull @pcpu_hot) #2, !srcloc !5
  %7 = inttoptr i64 %6 to ptr
  %8 = getelementptr inbounds i8, ptr %7, i64 1192
  %9 = load ptr, ptr %8, align 8
  %10 = getelementptr inbounds i8, ptr %9, i64 80
  %11 = load ptr, ptr %10, align 16
  %12 = tail call i64 %11(ptr noundef %0, i64 noundef %1, i64 noundef %2, i64 noundef %3, i64 noundef %4) #3
  ret i64 %12
}

; Function Attrs: null_pointer_is_valid
declare dso_local i64 @iter_file_splice_write(ptr noundef, ptr noundef, ptr noundef, i64 noundef, i32 noundef) #0

; Function Attrs: null_pointer_is_valid
declare dso_local i64 @filemap_splice_read(ptr noundef, ptr noundef, ptr noundef, i64 noundef, i32 noundef) #0

; Function Attrs: null_pointer_is_valid
declare dso_local i32 @simple_setattr(ptr noundef, ptr noundef, ptr noundef) #0

; Function Attrs: null_pointer_is_valid
declare dso_local i32 @simple_getattr(ptr noundef, ptr noundef, ptr noundef, i32 noundef, i32 noundef) #0


!llvm.module.flags = !{!0, !1, !2, !3, !4}

!0 = !{i32 1, !"wchar_size", i32 2}
!1 = !{i32 8, !"cf-protection-branch", i32 1}
!2 = !{i32 4, !"function_return_thunk_extern", i32 1}
!3 = !{i32 4, !"indirect_branch_cs_prefix", i32 1}
!4 = !{i32 4, !"SkipRaxSetup", i32 1}
!5 = !{i64 2148123708}
